(dp1
Vlast_reply_id
p2
I0
sVlast_tweet_id
p3
I1
sVlast_mention_time
p4
F1458524418.6970141
sVlast_mention_id
p5
I1
sVmention_queue
p6
(lp7
sVlast_timeline_time
p8
F1458524418.9008319
sVrecent_timeline
p9
(lp10
sVfriends
p11
(lp12
I2434154055
aI376807389
aI2449550664
aI2976724390
aI2673470048
aI318463250
aI3053420175
aI2301920227
aI2889631732
aI3172248561
aI1282867915
aI1580819684
aI2485172600
aI1202133336
aI1872262867
aI3106097331
aI2839447593
aI2860731237
aI925776068
aI3088758225
aI381395023
aI2285262464
aI3105149554
aI607090149
aI630111869
aI2177883308
aI484251728
aI3408820251
aI341065863
aI831457405
aI588257392
aI2433831398
aI1387247797
aI461963256
aI631067403
aI154131007
aI273902189
aI107194481
aI44137759
aI2752962096
aI342000723
aI472159771
aI55509698
aI721760868
aI563202439
aI61188869
aI3429628605
aI494164110
aI191107859
aI317164958
aI3001117690
aI22407719
aI285647865
aI382152725
aI55552828
aI48007085
aI1673371844
aI1347204954
aI16242432
aI948034860
aI534397399
aI15823888
aI40281123
aI343242139
aI23605000
aI373854732
aI37685249
aI38692622
aI96778925
aI34276513
aI40385196
aI625676860
aI209533289
aI113665063
aI142278570
aI510215872
aI159377495
asVlast_reply_time
p13
I0
sVnew_followers
p14
(lp15
sVfollowers
p16
(lp17
I3304755387
aI460979031
aI901818440
aI4852963953
aI165175739
aI2449550664
aI107194481
aI2844090373
aI4824919042
aI703178745553645569
aI4724198427
aI4891346361
aI134876641
aI2280771776
aI3003164553
aI523625960
aI1593592536
aI608421963
aI397131465
aI1300077728
aI965029513
aI84042973
aI438506883
asVlast_follow_check
p18
I0
sVlast_timeline_id
p19
I711719557270937600
sVlast_tweet_time
p20
F1458524388.468545
s.